target datalayout = "e-m:e-p270:32:32-p271:32:32-p272:64:64-i64:64-i128:128-f80:128-n8:16:32:64-S128"
target triple = "x86_64-unknown-linux-gnu"

%struct.NetClientState = type { ptr, i32, %union.anon, ptr, ptr, ptr, ptr, [256 x i8], i8, ptr, i32, i8, i32, i32, i8, i8, i8, %union.anon.0 }
%union.anon = type { %struct.QTailQLink }
%struct.QTailQLink = type { ptr, ptr }
%union.anon.0 = type { %struct.QTailQLink }
%struct.NetVhostUserState = type { %struct.NetClientState, %struct.CharBackend, ptr, ptr, i32, i64, i8 }
%struct.CharBackend = type { ptr, ptr, ptr, ptr, ptr, ptr, i32, i32 }

; Function Attrs: nounwind sspstrong uwtable
define dso_local void @vhost_user_save_acked_features(ptr noundef %nc) #0 {
entry:
  %nc.addr = alloca ptr, align 8
  %s = alloca ptr, align 8
  %tmp = alloca ptr, align 8
  %__mptr = alloca ptr, align 8
  %tmp1 = alloca ptr, align 8
  %features = alloca i64, align 8
  store ptr %nc, ptr %nc.addr, align 8
  %0 = load ptr, ptr %nc.addr, align 8
  store ptr %0, ptr %__mptr, align 8
  %1 = load ptr, ptr %__mptr, align 8
  %add.ptr = getelementptr i8, ptr %1, i64 0
  store ptr %add.ptr, ptr %tmp1, align 8
  %2 = load ptr, ptr %tmp1, align 8
  store ptr %2, ptr %tmp, align 8
  %3 = load ptr, ptr %tmp, align 8
  store ptr %3, ptr %s, align 8
  %4 = load ptr, ptr %s, align 8
  %vhost_net = getelementptr inbounds %struct.NetVhostUserState, ptr %4, i32 0, i32 3
  %5 = load ptr, ptr %vhost_net, align 8
  %tobool = icmp ne ptr %5, null
  br i1 %tobool, label %if.then, label %if.end5

if.then:                                          ; preds = %entry
  %6 = load ptr, ptr %s, align 8
  %vhost_net2 = getelementptr inbounds %struct.NetVhostUserState, ptr %6, i32 0, i32 3
  %7 = load ptr, ptr %vhost_net2, align 8
  %call = call i64 @vhost_net_get_acked_features(ptr noundef %7)
  store i64 %call, ptr %features, align 8
  %8 = load i64, ptr %features, align 8
  %tobool3 = icmp ne i64 %8, 0
  br i1 %tobool3, label %if.then4, label %if.end

if.then4:                                         ; preds = %if.then
  %9 = load i64, ptr %features, align 8
  %10 = load ptr, ptr %s, align 8
  %acked_features = getelementptr inbounds %struct.NetVhostUserState, ptr %10, i32 0, i32 5
  store i64 %9, ptr %acked_features, align 8
  br label %if.end

if.end:                                           ; preds = %if.then4, %if.then
  br label %if.end5

if.end5:                                          ; preds = %if.end, %entry
  ret void
}