; Function Attrs: nounwind sspstrong uwtable
define dso_local void @vhost_user_save_acked_features(ptr noundef captures(none) %nc) local_unnamed_addr #0 {
entry:
  %vhost_net = getelementptr inbounds nuw i8, ptr %nc, i64 440
  %0 = load ptr, ptr %vhost_net, align 8
  %tobool.not = icmp eq ptr %0, null
  br i1 %tobool.not, label %if.end5, label %if.then

if.then:                                          ; preds = %entry
  %call = tail call i64 @vhost_net_get_acked_features(ptr noundef nonnull %0) #10
  %tobool3.not = icmp eq i64 %call, 0
  br i1 %tobool3.not, label %if.end5, label %if.then4

if.then4:                                         ; preds = %if.then
  %acked_features = getelementptr inbounds nuw i8, ptr %nc, i64 456
  store i64 %call, ptr %acked_features, align 8
  br label %if.end5

if.end5:                                          ; preds = %if.then, %if.then4, %entry
  ret void
}